; Function Attrs: mustprogress nofree norecurse nosync nounwind willreturn memory(none) uwtable
define i32 @ucase_tolower_77(i32 noundef %0) local_unnamed_addr #3 {
  %2 = icmp ult i32 %0, 55296
  br i1 %2, label %3, label %5

3:                                                ; preds = %1
  %4 = lshr i32 %0, 5
  br label %.sink.split

5:                                                ; preds = %1
  %6 = icmp ult i32 %0, 65536
  br i1 %6, label %7, label %12

7:                                                ; preds = %5
  %8 = icmp samesign ult i32 %0, 56320
  %9 = select i1 %8, i32 320, i32 0
  %10 = lshr i32 %0, 5
  %11 = add nuw nsw i32 %9, %10
  br label %.sink.split

12:                                               ; preds = %5
  %13 = icmp ugt i32 %0, 1114111
  br i1 %13, label %34, label %14

14:                                               ; preds = %12
  %15 = icmp samesign ugt i32 %0, 919551
  br i1 %15, label %34, label %16

16:                                               ; preds = %14
  %17 = lshr i32 %0, 11
  %18 = zext nneg i32 %17 to i64
  %19 = getelementptr inbounds nuw i16, ptr @_ZL21ucase_props_trieIndex, i64 %18
  %20 = getelementptr inbounds nuw i8, ptr %19, i64 4160
  %21 = load i16, ptr %20, align 2, !tbaa !14
  %22 = zext i16 %21 to i32
  %23 = lshr i32 %0, 5
  %24 = and i32 %23, 63
  %25 = add nuw nsw i32 %24, %22
  br label %.sink.split

.sink.split:                                      ; preds = %3, %16, %7
  %.sink63 = phi i32 [ %11, %7 ], [ %25, %16 ], [ %4, %3 ]
  %26 = zext nneg i32 %.sink63 to i64
  %27 = getelementptr inbounds nuw i16, ptr @_ZL21ucase_props_trieIndex, i64 %26
  %28 = load i16, ptr %27, align 2, !tbaa !14
  %29 = zext i16 %28 to i32
  %30 = shl nuw nsw i32 %29, 2
  %31 = and i32 %0, 31
  %32 = add nuw nsw i32 %30, %31
  %33 = zext nneg i32 %32 to i64
  br label %34

34:                                               ; preds = %.sink.split, %14, %12
  %35 = phi i64 [ 3596, %12 ], [ 13368, %14 ], [ %33, %.sink.split ]
  %36 = getelementptr inbounds nuw i16, ptr @_ZL21ucase_props_trieIndex, i64 %35
  %37 = load i16, ptr %36, align 2, !tbaa !14
  %38 = zext i16 %37 to i32
  %39 = and i32 %38, 8
  %.not = icmp eq i32 %39, 0
  br i1 %.not, label %40, label %46

40:                                               ; preds = %34
  %41 = and i32 %38, 2
  %.not52 = icmp eq i32 %41, 0
  br i1 %.not52, label %97, label %42

42:                                               ; preds = %40
  %43 = ashr i16 %37, 7
  %44 = sext i16 %43 to i32
  %45 = add nsw i32 %0, %44
  br label %97

46:                                               ; preds = %34
  %47 = lshr i32 %38, 4
  %48 = zext nneg i32 %47 to i64
  %49 = getelementptr inbounds nuw i16, ptr @_ZL22ucase_props_exceptions, i64 %48
  %50 = getelementptr inbounds nuw i8, ptr %49, i64 2
  %51 = load i16, ptr %49, align 2, !tbaa !14
  %52 = zext i16 %51 to i32
  %53 = and i32 %52, 16
  %.not53 = icmp eq i32 %53, 0
  %54 = and i32 %38, 2
  %.not54 = icmp eq i32 %54, 0
  %or.cond = or i1 %.not54, %.not53
  br i1 %or.cond, label %76, label %55

55:                                               ; preds = %46
  %56 = and i32 %52, 256
  %57 = icmp eq i32 %56, 0
  %58 = and i32 %52, 15
  %59 = zext nneg i32 %58 to i64
  %60 = getelementptr inbounds nuw [256 x i8], ptr @_ZL11flagsOffset, i64 0, i64 %59
  %61 = load i8, ptr %60, align 1, !tbaa !16
  %62 = zext i8 %61 to i64
  br i1 %57, label %63, label %67

63:                                               ; preds = %55
  %64 = getelementptr inbounds nuw i16, ptr %50, i64 %62
  %65 = load i16, ptr %64, align 2, !tbaa !14
  %66 = zext i16 %65 to i32
  br label %92

67:                                               ; preds = %55
  %.idx = shl nuw nsw i64 %62, 2
  %68 = getelementptr inbounds nuw i8, ptr %50, i64 %.idx
  %69 = getelementptr inbounds nuw i8, ptr %68, i64 2
  %70 = load i16, ptr %68, align 2, !tbaa !14
  %71 = zext i16 %70 to i32
  %72 = shl nuw i32 %71, 16
  %73 = load i16, ptr %69, align 2, !tbaa !14
  %74 = zext i16 %73 to i32
  %75 = or disjoint i32 %72, %74
  br label %92

76:                                               ; preds = %46
  %77 = and i32 %52, 1
  %.not55 = icmp eq i32 %77, 0
  br i1 %.not55, label %97, label %78

78:                                               ; preds = %76
  %79 = and i32 %52, 256
  %80 = icmp eq i32 %79, 0
  br i1 %80, label %81, label %84

81:                                               ; preds = %78
  %82 = load i16, ptr %50, align 2, !tbaa !14
  %83 = zext i16 %82 to i32
  br label %97

84:                                               ; preds = %78
  %85 = getelementptr inbounds nuw i8, ptr %49, i64 4
  %86 = load i16, ptr %50, align 2, !tbaa !14
  %87 = zext i16 %86 to i32
  %88 = shl nuw i32 %87, 16
  %89 = load i16, ptr %85, align 2, !tbaa !14
  %90 = zext i16 %89 to i32
  %91 = or disjoint i32 %88, %90
  br label %97

92:                                               ; preds = %63, %67
  %.046 = phi i32 [ %66, %63 ], [ %75, %67 ]
  %93 = and i32 %52, 1024
  %94 = icmp eq i32 %93, 0
  %95 = sub i32 0, %.046
  %.p = select i1 %94, i32 %.046, i32 %95
  %96 = add i32 %.p, %0
  br label %97

97:                                               ; preds = %92, %81, %84, %76, %42, %40
  %.1 = phi i32 [ %45, %42 ], [ %0, %40 ], [ %96, %92 ], [ %0, %76 ], [ %91, %84 ], [ %83, %81 ]
  ret i32 %.1
}